Certificate:
    Data:
        Version: 3 (0x2)
        Serial Number: 717 (0x2cd)
    Signature Algorithm: ecdsa-with-SHA1
        Issuer: CN=estExampleCA
        Validity
            Not Before: Sep 27 15:00:41 2013 GMT
            Not After : Nov  5 15:00:41 2017 GMT
        Subject: CN=tester13
        Subject Public Key Info:
            Public Key Algorithm: rsaEncryption
                Public-Key: (1024 bit)
                Modulus:
                    00:c2:04:ef:f9:51:a9:a6:72:ad:23:e7:af:7d:51:
                    8b:dc:7e:d0:71:33:5d:93:65:52:6e:79:df:30:58:
                    cf:08:4e:47:8d:4a:1f:6a:ea:48:67:68:27:10:0d:
                    a8:c2:80:e8:0d:10:12:34:32:e9:d8:77:e5:15:ec:
                    9c:95:ba:f4:16:57:e5:aa:6f:18:9e:ee:4e:6c:ef:
                    4c:f3:bf:91:f0:4b:b0:8d:c0:ff:8f:6e:f1:f3:b9:
                    31:8e:73:d9:5c:c5:5f:fd:30:ae:36:ba:80:aa:75:
                    ae:4d:50:3b:ba:b3:9a:a6:d2:3a:45:20:c3:7e:86:
                    79:af:74:d7:c2:d4:c1:d4:fb
                Exponent: 65537 (0x10001)
        X509v3 extensions:
            X509v3 Basic Constraints: 
                CA:FALSE
            X509v3 Key Usage: 
                Digital Signature, Non Repudiation, Key Encipherment
            X509v3 Subject Alternative Name: 
                IP Address:192.168.51.140, IP Address:127.0.0.1
    Signature Algorithm: ecdsa-with-SHA1
         30:44:02:20:6e:64:22:3a:61:01:a6:bb:5a:3d:52:12:4e:b0:
         14:50:34:6d:0d:44:ba:28:24:88:50:a8:3a:45:01:76:1e:3a:
         02:20:5e:8f:cf:9b:74:e8:a3:29:7c:bb:15:2b:34:14:7a:ad:
         1e:98:07:2a:cf:75:88:88:45:51:d7:2c:98:a0:4c:01
-----BEGIN CERTIFICATE-----
MIIBjzCCATegAwIBAgICAs0wCQYHKoZIzj0EATAXMRUwEwYDVQQDEwxlc3RFeGFt
cGxlQ0EwHhcNMTMwOTI3MTUwMDQxWhcNMTcxMTA1MTUwMDQxWjATMREwDwYDVQQD
DAh0ZXN0ZXIxMzCBnzANBgkqhkiG9w0BAQEFAAOBjQAwgYkCgYEAwgTv+VGppnKt
I+evfVGL3H7QcTNdk2VSbnnfMFjPCE5HjUofaupIZ2gnEA2owoDoDRASNDLp2Hfl
Feyclbr0Flflqm8Ynu5ObO9M87+R8EuwjcD/j27x87kxjnPZXMVf/TCuNrqAqnWu
TVA7urOaptI6RSDDfoZ5r3TXwtTB1PsCAwEAAaMxMC8wCQYDVR0TBAIwADALBgNV
HQ8EBAMCBeAwFQYDVR0RBA4wDIcEwKgzjIcEfwAAATAJBgcqhkjOPQQBA0cAMEQC
IG5kIjphAaa7Wj1SEk6wFFA0bQ1EuigkiFCoOkUBdh46AiBej8+bdOijKXy7FSs0
FHqtHpgHKs91iIhFUdcsmKBMAQ==
-----END CERTIFICATE-----
