Certificate:
    Data:
        Version: 3 (0x2)
        Serial Number: 867 (0x363)
    Signature Algorithm: ecdsa-with-SHA1
        Issuer: CN=estExampleCA
        Validity
            Not Before: Sep 29 12:43:07 2014 GMT
            Not After : Dec 16 12:43:07 2022 GMT
        Subject: CN=*.google.com
        Subject Public Key Info:
            Public Key Algorithm: rsaEncryption
                Public-Key: (1024 bit)
                Modulus:
                    00:c0:4a:fd:4b:ac:bc:cd:ca:d2:7d:ba:03:d4:49:
                    5e:68:fb:47:dd:f5:01:9c:ec:65:82:7f:50:9f:24:
                    3f:9f:44:96:14:d5:9c:64:a9:19:51:83:2f:5e:62:
                    11:a0:46:14:1f:e8:d9:c4:61:23:6b:fe:96:59:a3:
                    cd:e5:c3:82:08:c4:3f:55:a4:5c:7a:63:9d:bb:58:
                    ec:79:62:31:c2:4d:c4:1d:43:05:bc:09:78:a1:c1:
                    27:21:41:b7:03:82:11:96:5d:b5:97:92:a1:93:f8:
                    1c:e2:5f:33:e6:03:0e:03:9e:84:6a:72:d6:00:9f:
                    77:75:2d:be:e6:84:fb:22:b3
                Exponent: 65537 (0x10001)
        X509v3 extensions:
            X509v3 Basic Constraints: 
                CA:FALSE
            X509v3 Key Usage: 
                Digital Signature, Non Repudiation, Key Encipherment
    Signature Algorithm: ecdsa-with-SHA1
         30:44:02:20:09:d4:15:d9:f2:48:dd:be:68:6f:1a:dd:48:fb:
         85:e3:f3:e4:f8:67:a6:36:fc:0f:b2:bb:23:f7:ba:92:77:bc:
         02:20:4f:aa:2f:29:1f:df:4f:0e:fa:fe:57:6e:85:5e:30:bd:
         21:56:c0:ef:30:be:7b:48:6a:f1:71:46:f2:17:fe:b6
-----BEGIN CERTIFICATE-----
MIIBfDCCASSgAwIBAgICA2MwCQYHKoZIzj0EATAXMRUwEwYDVQQDEwxlc3RFeGFt
cGxlQ0EwHhcNMTQwOTI5MTI0MzA3WhcNMjIxMjE2MTI0MzA3WjAXMRUwEwYDVQQD
DAwqLmdvb2dsZS5jb20wgZ8wDQYJKoZIhvcNAQEBBQADgY0AMIGJAoGBAMBK/Uus
vM3K0n26A9RJXmj7R931AZzsZYJ/UJ8kP59ElhTVnGSpGVGDL15iEaBGFB/o2cRh
I2v+llmjzeXDggjEP1WkXHpjnbtY7HliMcJNxB1DBbwJeKHBJyFBtwOCEZZdtZeS
oZP4HOJfM+YDDgOehGpy1gCfd3UtvuaE+yKzAgMBAAGjGjAYMAkGA1UdEwQCMAAw
CwYDVR0PBAQDAgXgMAkGByqGSM49BAEDRwAwRAIgCdQV2fJI3b5obxrdSPuF4/Pk
+GemNvwPsrsj97qSd7wCIE+qLykf308O+v5XboVeML0hVsDvML57SGrxcUbyF/62
-----END CERTIFICATE-----
