Certificate:
    Data:
        Version: 3 (0x2)
        Serial Number: 864 (0x360)
    Signature Algorithm: ecdsa-with-SHA1
        Issuer: CN=estExampleCA
        Validity
            Not Before: Sep 29 12:39:24 2014 GMT
            Not After : Dec 16 12:39:24 2022 GMT
        Subject: CN=192.168.1.50
        Subject Public Key Info:
            Public Key Algorithm: rsaEncryption
                Public-Key: (1024 bit)
                Modulus:
                    00:d8:fe:96:35:15:34:48:a5:6c:21:65:8e:0b:9f:
                    85:59:2e:24:f6:9b:23:2a:d9:d3:71:92:b3:24:2d:
                    1f:ae:f5:bb:1b:84:e9:ed:42:8a:b9:47:bc:92:70:
                    69:93:a7:c8:50:4b:05:89:36:67:34:b4:2a:97:fb:
                    64:9e:49:19:68:0d:21:36:36:63:6f:df:d9:39:f7:
                    e9:da:ff:fe:9a:a8:e6:d5:75:bb:3f:e5:38:f5:c2:
                    26:f4:f1:f4:b6:5c:9b:a7:4b:2c:7d:34:ff:c0:87:
                    ad:dc:2c:6a:bd:22:cc:13:78:ff:f5:93:c7:63:10:
                    44:e0:3f:2c:04:91:26:9b:eb
                Exponent: 65537 (0x10001)
        X509v3 extensions:
            X509v3 Basic Constraints: 
                CA:FALSE
            X509v3 Key Usage: 
                Digital Signature, Non Repudiation, Key Encipherment
    Signature Algorithm: ecdsa-with-SHA1
         30:45:02:21:00:b9:1f:ee:63:e9:0a:79:a6:76:72:e8:d8:93:
         b8:26:aa:ff:15:04:2b:f0:37:bb:45:96:5b:0b:ce:15:67:b7:
         75:02:20:21:62:07:24:76:f4:98:90:f4:6d:7e:d7:57:62:a6:
         6a:b1:40:b7:d2:73:1c:58:24:eb:a9:3a:19:90:34:0e:ba
-----BEGIN CERTIFICATE-----
MIIBfTCCASSgAwIBAgICA2AwCQYHKoZIzj0EATAXMRUwEwYDVQQDEwxlc3RFeGFt
cGxlQ0EwHhcNMTQwOTI5MTIzOTI0WhcNMjIxMjE2MTIzOTI0WjAXMRUwEwYDVQQD
DAwxOTIuMTY4LjEuNTAwgZ8wDQYJKoZIhvcNAQEBBQADgY0AMIGJAoGBANj+ljUV
NEilbCFljgufhVkuJPabIyrZ03GSsyQtH671uxuE6e1CirlHvJJwaZOnyFBLBYk2
ZzS0Kpf7ZJ5JGWgNITY2Y2/f2Tn36dr//pqo5tV1uz/lOPXCJvTx9LZcm6dLLH00
/8CHrdwsar0izBN4//WTx2MQROA/LASRJpvrAgMBAAGjGjAYMAkGA1UdEwQCMAAw
CwYDVR0PBAQDAgXgMAkGByqGSM49BAEDSAAwRQIhALkf7mPpCnmmdnLo2JO4Jqr/
FQQr8De7RZZbC84VZ7d1AiAhYgckdvSYkPRtftdXYqZqsUC30nMcWCTrqToZkDQO
ug==
-----END CERTIFICATE-----
