Certificate:
    Data:
        Version: 3 (0x2)
        Serial Number: 865 (0x361)
    Signature Algorithm: ecdsa-with-SHA1
        Issuer: CN=estExampleCA
        Validity
            Not Before: Sep 29 12:41:31 2014 GMT
            Not After : Dec 16 12:41:31 2022 GMT
        Subject: CN=*.cisco.com
        Subject Public Key Info:
            Public Key Algorithm: rsaEncryption
                Public-Key: (1024 bit)
                Modulus:
                    00:b7:08:e6:18:f2:32:d7:07:44:4b:f3:b1:83:01:
                    59:f8:bc:ec:26:71:92:9a:53:70:f2:c0:be:2a:d6:
                    26:6f:45:11:86:d7:ee:37:9d:d3:2f:22:b2:8b:9b:
                    c5:96:00:36:73:97:c3:4c:f2:7a:0b:2c:e0:cc:d9:
                    f0:ec:ba:1b:75:8c:66:b1:86:10:fd:be:df:6b:67:
                    9c:0e:6b:2a:0e:d0:80:a8:dc:7a:d4:df:6e:79:28:
                    a7:60:1a:11:b7:ae:40:94:bb:b4:11:ed:1b:6f:a7:
                    91:ae:33:ec:bf:9c:30:f3:dc:91:2c:b4:3e:8c:c9:
                    bd:f1:d1:aa:f6:c2:1d:6a:cd
                Exponent: 65537 (0x10001)
        X509v3 extensions:
            X509v3 Basic Constraints: 
                CA:FALSE
            X509v3 Key Usage: 
                Digital Signature, Non Repudiation, Key Encipherment
    Signature Algorithm: ecdsa-with-SHA1
         30:44:02:20:76:4f:3a:6c:b4:99:cb:1e:37:f4:0d:6e:e1:74:
         4b:99:bb:f5:c4:b6:3d:c1:61:df:8c:d7:1f:9f:e7:d3:64:d6:
         02:20:64:38:8f:6f:32:37:2b:7d:cf:28:93:e5:e6:e7:70:c5:
         a9:12:04:b0:4b:a5:29:7b:23:df:85:f2:18:44:8b:d2
-----BEGIN CERTIFICATE-----
MIIBezCCASOgAwIBAgICA2EwCQYHKoZIzj0EATAXMRUwEwYDVQQDEwxlc3RFeGFt
cGxlQ0EwHhcNMTQwOTI5MTI0MTMxWhcNMjIxMjE2MTI0MTMxWjAWMRQwEgYDVQQD
DAsqLmNpc2NvLmNvbTCBnzANBgkqhkiG9w0BAQEFAAOBjQAwgYkCgYEAtwjmGPIy
1wdES/OxgwFZ+LzsJnGSmlNw8sC+KtYmb0URhtfuN53TLyKyi5vFlgA2c5fDTPJ6
CyzgzNnw7LobdYxmsYYQ/b7fa2ecDmsqDtCAqNx61N9ueSinYBoRt65AlLu0Ee0b
b6eRrjPsv5ww89yRLLQ+jMm98dGq9sIdas0CAwEAAaMaMBgwCQYDVR0TBAIwADAL
BgNVHQ8EBAMCBeAwCQYHKoZIzj0EAQNHADBEAiB2TzpstJnLHjf0DW7hdEuZu/XE
tj3BYd+M1x+f59Nk1gIgZDiPbzI3K33PKJPl5udwxakSBLBLpSl7I9+F8hhEi9I=
-----END CERTIFICATE-----
