Certificate:
    Data:
        Version: 3 (0x2)
        Serial Number: 687 (0x2af)
    Signature Algorithm: ecdsa-with-SHA1
        Issuer: CN=estExampleCA
        Validity
            Not Before: Sep 27 13:55:10 2013 GMT
            Not After : Nov  5 13:55:10 2017 GMT
        Subject: CN=tester
        Subject Public Key Info:
            Public Key Algorithm: rsaEncryption
                Public-Key: (1024 bit)
                Modulus:
                    00:ee:44:f3:93:2c:a6:3f:9c:ba:2a:83:b0:bd:a5:
                    74:a5:c8:d3:a8:a0:44:4d:eb:ab:f5:4d:72:5a:d8:
                    6f:ce:74:bb:4a:d1:8a:a8:9a:e5:e2:a7:0c:95:c7:
                    a0:7d:c8:84:6f:63:b2:c3:09:f4:ea:0c:06:f7:99:
                    e2:0e:c3:f0:cf:44:30:33:08:f8:69:79:7a:63:34:
                    6d:ed:a9:cf:f7:9b:ca:dd:24:25:cd:bc:0e:cc:17:
                    cc:1f:8c:1c:15:7b:5f:ca:7e:26:15:dc:a5:54:7e:
                    9c:47:46:59:1e:80:f0:37:e4:c3:d7:96:df:48:d2:
                    a7:14:d8:8f:7a:78:ee:f3:5d
                Exponent: 65537 (0x10001)
        X509v3 extensions:
            X509v3 Basic Constraints: 
                CA:FALSE
            X509v3 Key Usage: 
                Digital Signature, Non Repudiation, Key Encipherment
            X509v3 Subject Alternative Name: 
                DNS:localhost.cisco.com
    Signature Algorithm: ecdsa-with-SHA1
         30:46:02:21:00:97:1b:17:9e:9e:df:8f:fb:d2:18:5f:89:d8:
         30:31:87:9c:f8:56:9b:6d:e1:b6:87:bf:c7:d6:c3:a9:ab:f3:
         6c:02:21:00:fb:40:3e:6a:9a:72:d8:ac:95:b5:62:39:22:69:
         34:61:ad:55:0f:e8:5f:51:08:48:24:53:b7:5c:72:cc:5d:ae
-----BEGIN CERTIFICATE-----
MIIBmDCCAT6gAwIBAgICAq8wCQYHKoZIzj0EATAXMRUwEwYDVQQDEwxlc3RFeGFt
cGxlQ0EwHhcNMTMwOTI3MTM1NTEwWhcNMTcxMTA1MTM1NTEwWjARMQ8wDQYDVQQD
DAZ0ZXN0ZXIwgZ8wDQYJKoZIhvcNAQEBBQADgY0AMIGJAoGBAO5E85Mspj+cuiqD
sL2ldKXI06igRE3rq/VNclrYb850u0rRiqia5eKnDJXHoH3IhG9jssMJ9OoMBveZ
4g7D8M9EMDMI+Gl5emM0be2pz/ebyt0kJc28DswXzB+MHBV7X8p+JhXcpVR+nEdG
WR6A8Dfkw9eW30jSpxTYj3p47vNdAgMBAAGjOjA4MAkGA1UdEwQCMAAwCwYDVR0P
BAQDAgXgMB4GA1UdEQQXMBWCE2xvY2FsaG9zdC5jaXNjby5jb20wCQYHKoZIzj0E
AQNJADBGAiEAlxsXnp7fj/vSGF+J2DAxh5z4Vptt4baHv8fWw6mr82wCIQD7QD5q
mnLYrJW1YjkiaTRhrVUP6F9RCEgkU7dccsxdrg==
-----END CERTIFICATE-----
