Certificate:
    Data:
        Version: 3 (0x2)
        Serial Number: 9 (0x9)
        Signature Algorithm: sha1WithRSAEncryption
        Issuer: C=AT, ST=Austria, L=Vienna, O=Tiani Spirit GmbH, OU=Demo Environment, CN=Test CA/emailAddress=massimiliano.masi@tiani-spirit.com
        Validity
            Not Before: Oct 30 14:57:38 2012 GMT
            Not After : Apr  5 14:57:38 2192 GMT
        Subject: C=AT, ST=Austria, O=Tiani Spirit GmbH, OU=Test Environment, CN=massi@direct.tiani-spirit.net/emailAddress=massi@direct.tiani-spirit.net
        Subject Public Key Info:
            Public Key Algorithm: rsaEncryption
            RSA Public Key: (1024 bit)
                Modulus (1024 bit):
                    00:c0:be:a0:14:7e:2a:5a:32:7d:b2:6c:4d:01:d2:
                    ae:92:4a:1b:26:00:9a:78:99:bd:e6:17:38:75:a2:
                    ab:25:63:0c:19:e6:87:75:cb:16:99:84:97:30:c8:
                    ca:fe:35:ec:3f:68:c5:7a:2b:22:34:ed:7b:79:c0:
                    ed:7d:66:94:ba:6e:c7:d4:f1:0c:53:76:63:cf:ec:
                    9a:f5:bd:4d:97:19:4d:88:ab:c9:1d:6d:84:95:75:
                    ed:7f:f4:43:57:19:7c:b3:c5:2e:4e:79:38:e7:9e:
                    d4:24:ed:eb:b8:89:d4:0e:13:8c:04:c4:2d:f0:e2:
                    ee:1f:92:be:30:44:11:6d:d1
                Exponent: 65537 (0x10001)
        X509v3 extensions:
            X509v3 Basic Constraints: 
                CA:FALSE
            Netscape Comment: 
                OpenSSL Generated Certificate
            X509v3 Subject Key Identifier: 
                67:2B:7D:3B:53:94:55:6F:A8:54:C9:E9:45:E0:F8:39:BA:DB:E7:76
            X509v3 Authority Key Identifier: 
                keyid:64:C2:28:6E:51:39:46:A4:D0:F1:AE:76:45:6D:6F:38:15:78:FB:DA

    Signature Algorithm: sha1WithRSAEncryption
        5b:05:41:59:db:b6:7b:a8:ce:73:7f:ce:23:d5:79:5e:90:a1:
        65:ba:b9:69:c5:92:80:dd:4d:58:0f:68:91:57:e0:6e:71:3e:
        0e:c8:67:45:9d:4b:8d:bc:14:de:c4:41:76:7d:2a:c3:42:f7:
        3d:a0:a7:4f:32:26:d1:bb:05:84:6f:d3:f1:89:bd:1d:6e:ff:
        d2:37:4a:e4:f3:8f:14:02:5d:71:59:cd:e0:0c:f8:20:29:45:
        f2:d4:5e:0c:a5:71:d6:64:ea:97:1e:b6:55:ba:01:3a:1d:33:
        84:aa:5c:3c:c0:57:5f:6e:23:86:15:7d:92:41:5b:88:8e:a1:
        cb:f1:03:eb:00:be:9e:f8:4d:df:7c:91:d9:a8:65:6d:d1:92:
        f6:03:b9:22:f0:9a:5b:d9:cb:32:4f:d9:39:d9:2b:54:c9:46:
        ae:ce:a3:98:62:82:82:23:c4:c2:ac:3d:85:b1:ed:33:52:92:
        02:7b:4b:75:67:2c:6f:d0:39:cc:b1:25:8b:2f:72:f2:0e:35:
        13:49:48:20:26:fc:98:8b:40:7e:19:4c:6b:37:39:45:d8:e5:
        56:55:ff:d1:58:3b:b0:f0:53:96:71:d7:6e:29:f8:29:33:e9:
        86:ee:34:29:b9:1a:30:6d:b9:ac:32:cf:a2:de:48:27:8b:6b:
        8b:e9:9c:a4
-----BEGIN CERTIFICATE-----
MIIDzjCCAragAwIBAgIBCTANBgkqhkiG9w0BAQUFADCBrDELMAkGA1UEBhMCQVQx
EDAOBgNVBAgTB0F1c3RyaWExDzANBgNVBAcTBlZpZW5uYTEaMBgGA1UEChMRVGlh
bmkgU3Bpcml0IEdtYkgxGTAXBgNVBAsTEERlbW8gRW52aXJvbm1lbnQxEDAOBgNV
BAMTB1Rlc3QgQ0ExMTAvBgkqhkiG9w0BCQEWIm1hc3NpbWlsaWFuby5tYXNpQHRp
YW5pLXNwaXJpdC5jb20wIBcNMTIxMDMwMTQ1NzM4WhgPMjE5MjA0MDUxNDU3Mzha
MIGsMQswCQYDVQQGEwJBVDEQMA4GA1UECBMHQXVzdHJpYTEaMBgGA1UEChMRVGlh
bmkgU3Bpcml0IEdtYkgxGTAXBgNVBAsTEFRlc3QgRW52aXJvbm1lbnQxJjAkBgNV
BAMUHW1hc3NpQGRpcmVjdC50aWFuaS1zcGlyaXQubmV0MSwwKgYJKoZIhvcNAQkB
Fh1tYXNzaUBkaXJlY3QudGlhbmktc3Bpcml0Lm5ldDCBnzANBgkqhkiG9w0BAQEF
AAOBjQAwgYkCgYEAwL6gFH4qWjJ9smxNAdKukkobJgCaeJm95hc4daKrJWMMGeaH
dcsWmYSXMMjK/jXsP2jFeisiNO17ecDtfWaUum7H1PEMU3Zjz+ya9b1NlxlNiKvJ
HW2ElXXtf/RDVxl8s8UuTnk4557UJO3ruInUDhOMBMQt8OLuH5K+MEQRbdECAwEA
AaN7MHkwCQYDVR0TBAIwADAsBglghkgBhvhCAQ0EHxYdT3BlblNTTCBHZW5lcmF0
ZWQgQ2VydGlmaWNhdGUwHQYDVR0OBBYEFGcrfTtTlFVvqFTJ6UXg+Dm62+d2MB8G
A1UdIwQYMBaAFGTCKG5ROUak0PGudkVtbzgVePvaMA0GCSqGSIb3DQEBBQUAA4IB
AQBbBUFZ27Z7qM5zf84j1XlekKFlurlpxZKA3U1YD2iRV+BucT4OyGdFnUuNvBTe
xEF2fSrDQvc9oKdPMibRuwWEb9Pxib0dbv/SN0rk848UAl1xWc3gDPggKUXy1F4M
pXHWZOqXHrZVugE6HTOEqlw8wFdfbiOGFX2SQVuIjqHL8QPrAL6e+E3ffJHZqGVt
0ZL2A7ki8Jpb2csyT9k52StUyUauzqOYYoKCI8TCrD2Fse0zUpICe0t1Zyxv0DnM
sSWLL3LyDjUTSUggJvyYi0B+GUxrNzlF2OVWVf/RWDuw8FOWcdduKfgpM+mG7jQp
uRowbbmsMs+i3kgni2uL6Zyk
-----END CERTIFICATE-----
