Certificate:
    Data:
        Version: 3 (0x2)
        Serial Number: 27 (0x1b)
    Signature Algorithm: sha256WithRSAEncryption
        Issuer: CN=est-EXTERNALCA
        Validity
            Not Before: Apr 20 12:25:48 2017 GMT
            Not After : Apr 20 12:25:48 2037 GMT
        Subject: CN=TRIAD_EST_KEYENCIPHERMENT
        Subject Public Key Info:
            Public Key Algorithm: rsaEncryption
                Public-Key: (2048 bit)
                Modulus:
                    00:b1:93:36:0b:05:d5:72:19:9a:8a:26:24:a9:ef:
                    4e:9b:17:4f:e9:15:2f:cc:6f:8d:96:76:6b:bf:7d:
                    ee:16:88:7e:5b:8a:4a:da:45:9b:4f:67:8f:36:fb:
                    10:2c:ab:8d:bd:c8:ed:1f:72:89:1b:1a:19:61:02:
                    1f:88:65:04:a6:52:2d:83:b3:66:da:71:54:58:c3:
                    d6:91:f9:87:cf:82:8a:29:60:1a:e1:34:5e:ba:92:
                    21:9b:e2:05:f0:37:00:28:e8:6e:c7:48:f5:3d:e9:
                    75:f1:84:12:84:47:5d:a2:38:15:43:a9:15:8e:28:
                    35:4a:0d:01:89:f0:9a:f2:05:49:21:fa:c8:ce:18:
                    20:a4:cb:34:b9:cc:6f:0a:d7:4a:56:c9:8c:c6:26:
                    87:f6:f8:cb:78:46:c7:c2:94:f3:56:23:74:cf:2f:
                    ff:2d:60:76:eb:87:f8:c3:9e:e1:19:91:ce:bf:af:
                    ce:ee:31:1a:e6:bb:e9:ae:49:d1:57:d3:d4:72:34:
                    2d:5e:64:86:7f:ff:91:1c:c3:51:57:69:f8:1b:e7:
                    06:b8:9d:a7:2d:07:7c:c5:dd:4a:70:e6:df:36:b1:
                    6c:a7:6e:7b:b7:1a:14:93:b1:c9:11:9b:81:07:78:
                    46:68:62:10:d2:37:2f:05:c7:e2:32:71:01:09:5d:
                    56:b7
                Exponent: 65537 (0x10001)
        X509v3 extensions:
            X509v3 Basic Constraints: 
                CA:FALSE
            X509v3 Key Usage: 
                Key Encipherment
            X509v3 Subject Alternative Name: 
                DNS:localhost, DNS:ip6-localhost, IP Address:127.0.0.1, IP Address:0:0:0:0:0:0:0:1
            X509v3 CRL Distribution Points: 

                Full Name:
                  URI:http://example.com/crl.pem

    Signature Algorithm: sha256WithRSAEncryption
         56:29:bb:a2:53:0a:98:da:e7:6e:df:e9:d9:a5:54:c2:41:88:
         5d:cd:f5:68:a3:54:b3:fd:f1:c1:d9:bc:1a:16:4c:98:0d:cc:
         bc:32:61:14:ca:bd:3f:0d:9e:fb:55:f9:19:af:36:c1:b7:64:
         e3:b6:d5:a3:a9:a3:62:fe:22:3d:0d:a8:7e:c1:df:b6:b7:03:
         45:17:3d:9c:97:d6:09:ed:e3:bd:01:38:e6:75:2e:fd:aa:f5:
         e6:cf:fe:8d:9d:de:34:67:51:20:ed:11:69:e7:56:eb:42:52:
         6c:c4:39:9c:ec:df:56:01:e7:a1:05:07:ea:c2:c7:95:75:45:
         ba:5b:11:35:1a:f7:60:c1:91:a0:e9:9c:dd:1b:3a:67:50:5b:
         ce:47:03:ee:3e:f4:62:6c:53:cb:94:b4:cf:3e:cf:b8:34:ce:
         44:47:89:9d:75:ef:dc:3d:80:88:7d:70:4c:8f:00:f6:d1:28:
         3c:c6:e3:6d:86:21:0a:cf:43:5a:f5:7c:0f:a9:03:c8:e6:8a:
         6a:bd:87:a7:2a:1c:52:ee:0f:5e:f7:04:c1:84:53:79:ce:a7:
         8d:7b:1a:c2:74:d2:c3:57:51:9d:e1:4e:eb:f2:52:77:77:58:
         96:01:d3:b0:eb:69:b0:c0:0d:a9:3c:da:da:94:98:30:1d:e9:
         68:0a:85:ce
-----BEGIN CERTIFICATE-----
MIIDPjCCAiagAwIBAgIBGzANBgkqhkiG9w0BAQsFADAZMRcwFQYDVQQDDA5lc3Qt
RVhURVJOQUxDQTAeFw0xNzA0MjAxMjI1NDhaFw0zNzA0MjAxMjI1NDhaMCQxIjAg
BgNVBAMMGVRSSUFEX0VTVF9LRVlFTkNJUEhFUk1FTlQwggEiMA0GCSqGSIb3DQEB
AQUAA4IBDwAwggEKAoIBAQCxkzYLBdVyGZqKJiSp706bF0/pFS/Mb42Wdmu/fe4W
iH5bikraRZtPZ482+xAsq429yO0fcokbGhlhAh+IZQSmUi2Ds2bacVRYw9aR+YfP
goopYBrhNF66kiGb4gXwNwAo6G7HSPU96XXxhBKER12iOBVDqRWOKDVKDQGJ8Jry
BUkh+sjOGCCkyzS5zG8K10pWyYzGJof2+Mt4RsfClPNWI3TPL/8tYHbrh/jDnuEZ
kc6/r87uMRrmu+muSdFX09RyNC1eZIZ//5Ecw1FXafgb5wa4nactB3zF3Upw5t82
sWynbnu3GhSTsckRm4EHeEZoYhDSNy8Fx+IycQEJXVa3AgMBAAGjgYUwgYIwCQYD
VR0TBAIwADALBgNVHQ8EBAMCBSAwOwYDVR0RBDQwMoIJbG9jYWxob3N0gg1pcDYt
bG9jYWxob3N0hwR/AAABhxAAAAAAAAAAAAAAAAAAAAABMCsGA1UdHwQkMCIwIKAe
oByGGmh0dHA6Ly9leGFtcGxlLmNvbS9jcmwucGVtMA0GCSqGSIb3DQEBCwUAA4IB
AQBWKbuiUwqY2udu3+nZpVTCQYhdzfVoo1Sz/fHB2bwaFkyYDcy8MmEUyr0/DZ77
VfkZrzbBt2TjttWjqaNi/iI9Dah+wd+2twNFFz2cl9YJ7eO9ATjmdS79qvXmz/6N
nd40Z1Eg7RFp51brQlJsxDmc7N9WAeehBQfqwseVdUW6WxE1GvdgwZGg6ZzdGzpn
UFvORwPuPvRibFPLlLTPPs+4NM5ER4mdde/cPYCIfXBMjwD20Sg8xuNthiEKz0Na
9XwPqQPI5opqvYenKhxS7g9e9wTBhFN5zqeNexrCdNLDV1Gd4U7r8lJ3d1iWAdOw
62mwwA2pPNralJgwHeloCoXO
-----END CERTIFICATE-----
-----BEGIN PRIVATE KEY-----
MIIEvgIBADANBgkqhkiG9w0BAQEFAASCBKgwggSkAgEAAoIBAQCxkzYLBdVyGZqK
JiSp706bF0/pFS/Mb42Wdmu/fe4WiH5bikraRZtPZ482+xAsq429yO0fcokbGhlh
Ah+IZQSmUi2Ds2bacVRYw9aR+YfPgoopYBrhNF66kiGb4gXwNwAo6G7HSPU96XXx
hBKER12iOBVDqRWOKDVKDQGJ8JryBUkh+sjOGCCkyzS5zG8K10pWyYzGJof2+Mt4
RsfClPNWI3TPL/8tYHbrh/jDnuEZkc6/r87uMRrmu+muSdFX09RyNC1eZIZ//5Ec
w1FXafgb5wa4nactB3zF3Upw5t82sWynbnu3GhSTsckRm4EHeEZoYhDSNy8Fx+Iy
cQEJXVa3AgMBAAECggEAQDpvYzhGdmE1aP+X5lFU/LrHYBaWNdspesE1gstRSRww
m/qezWk83lEmV2wi8w1QFNOulN/QIJnlkRV8A1EKiAAUT10d+CfiqsKXAzCew1tD
juiggFF5bAE8H852eGbka2d63iEQ90ZQrz0ml2ravriLVHA9iDAZ6kFfC54X5S6S
CA2EdSIqtIYu1D4Ljtetp7p+SsmU8aR9DNaNGNomQIFOU2D2IyNG4zM9JmlFOZZ1
7y//M/SHPpsRYw2C+Sb60OQ1jiwXqAuCNGaHOSH6LUeAzqTHk/puETdY3lCeLjYk
FOH07tQW9KlJFFmIXuWcqVdBLAfkfy40uEyHRJqkvQKBgQC+gGRUrOm/PQ67AZoa
WtE3YDW8FXkWf/lxh7lAuFsHzynzKV6rfq5Z7LH5NVRD3l2cbd4mIluI4aFHbx1D
5XcZ6Kgaojh/FKnGDB4ozvTpsnpKHiZVCO/zPancavAGYYBvDMg5w6Jt1o6QkAH+
fBKBUGcIwk4JEU2CFgUf0IfC/QKBgQDuoQ13LGlVAVMRM5FPdNVxflECJ6RsS3cA
+sHlSLXVfSmcHvyL/vyQ0QA7W3E16wZ/ZoGlYlG+EflM/5/p+et2YHRK/z3Vgz5m
BOoK4CBlBEjBvg+OONPAuNUkg4mEVTZSjyce8kNS8natf0xRMOFs1CjnHsPTDQB2
/XChghQQwwKBgQCrAvcOTGtJkbY3iiicoApQe73BKkWZPSjgEcbropOVXxN5hhnG
OeKqNyFNZeJPSr8ePkK+WPly15nAVq8e1E8mowTFY/rzmckOULKCT8bsQ5wkDQy8
KVm+MgzaIeV21PBGwGK9+DFICOPSQnSHzzmNfHACHOuQmEfMD5hqBvjYwQKBgQCF
hxlB1lgaeONCfNiS3Y2SNFygGA6pipDMu4RECKu3CpJ+CdjHfadWYZz/met/gEPi
hjmFkb6r3OLjcybIhlB7rP1l+e1fzFDeRWGxNDjsTblosDGEI8hZzxN1myUYJ5Z+
HByH9Ig3ofVGoDTUOcXqX82DhnONZXkdHDQqK9+OgQKBgEz/FZpmkDW4mpRwXUQo
rkIT6pjdRThqDhWF3qN0gZdo4SVVAYRLC2WWM6lqsroN9qOLSlY7jQtVE7HDUYEn
VIoS7AVgufJddlB89Bqbru29ydsyY2DLp6Sori1cd2Iv9qdlqJHQUpWG1KLW9SJv
+9YkHg8iooDSasidXiEQksTj
-----END PRIVATE KEY-----
