Certificate:
    Data:
        Version: 3 (0x2)
        Serial Number: 25 (0x19)
    Signature Algorithm: sha256WithRSAEncryption
        Issuer: CN=est-EXTERNALCA
        Validity
            Not Before: Apr 20 12:25:46 2017 GMT
            Not After : Apr 20 12:25:46 2037 GMT
        Subject: CN=TRIAD_EST_DIGITALSIGNATURE
        Subject Public Key Info:
            Public Key Algorithm: rsaEncryption
                Public-Key: (2048 bit)
                Modulus:
                    00:b0:fb:de:66:5d:0d:0a:f8:38:b0:89:81:0e:3d:
                    9d:ca:96:46:35:db:fe:ed:1d:f9:6c:e0:75:5e:9e:
                    68:32:4f:72:9b:bb:5e:26:58:7a:37:bb:90:1f:36:
                    d0:ad:9f:8a:62:a4:9a:4b:2d:97:21:32:e2:6a:3f:
                    3d:c6:d4:30:2f:9f:25:6e:1c:c6:23:e8:a0:01:81:
                    8f:c9:2f:8c:76:73:6b:4d:55:fa:f6:57:e4:3e:af:
                    c5:ad:86:9c:5b:39:0a:8b:50:1d:ac:86:32:64:b3:
                    47:57:87:43:5f:5b:5c:90:50:0f:e9:c4:88:4a:50:
                    8f:54:00:df:9c:6a:d7:65:d8:d4:a3:27:91:13:e5:
                    c3:b1:e9:4d:bd:fa:60:80:8f:25:f5:99:f0:88:b3:
                    10:a7:93:91:7a:c0:c6:e6:16:a4:a2:ef:b0:26:e6:
                    27:18:26:20:2a:c5:87:07:2e:98:32:86:c8:34:2f:
                    e1:5c:b2:a6:f1:af:8f:f6:c0:80:88:72:40:5a:e4:
                    a7:e2:e5:05:05:ca:7e:71:e2:28:a7:53:d6:06:3a:
                    c2:2d:88:09:9d:3e:9b:75:cc:ee:98:0b:10:16:5c:
                    f7:f4:0f:35:6b:d5:9e:ca:9a:c1:77:a1:04:fe:da:
                    0f:ee:06:6f:c2:c3:1d:d5:cf:89:01:c8:da:c3:86:
                    84:79
                Exponent: 65537 (0x10001)
        X509v3 extensions:
            X509v3 Basic Constraints: 
                CA:FALSE
            X509v3 Key Usage: 
                Digital Signature
            X509v3 Subject Alternative Name: 
                DNS:localhost, DNS:ip6-localhost, IP Address:127.0.0.1, IP Address:0:0:0:0:0:0:0:1
            X509v3 CRL Distribution Points: 

                Full Name:
                  URI:http://example.com/crl.pem

    Signature Algorithm: sha256WithRSAEncryption
         ab:5b:5a:da:8e:69:8d:dd:03:70:94:e4:d3:86:ba:95:83:bf:
         ff:28:b6:b8:bf:b9:d4:24:ac:60:4a:93:43:14:5a:14:79:15:
         8f:c8:67:e6:7f:95:c0:a5:61:bc:4a:2c:76:b6:71:c3:4d:f4:
         54:81:2e:89:93:96:33:41:19:48:b7:06:0b:cd:80:a8:95:13:
         95:1d:68:48:ce:2b:f4:c9:55:43:54:93:f3:47:f5:32:bd:4d:
         8c:28:95:e7:70:f5:d2:f6:a3:6f:63:46:35:0f:93:21:89:96:
         b0:76:f9:e3:5d:1e:ee:16:ef:ce:34:0b:10:4e:30:3d:f6:20:
         27:8d:31:16:ab:22:78:c1:fe:e5:23:63:fa:4d:d8:9e:bc:cc:
         14:3f:72:22:93:9d:ed:f7:3d:6f:53:52:4b:18:ab:97:29:27:
         b2:e7:5c:3f:af:2b:a3:fd:6a:74:28:d0:10:da:8c:2b:04:0f:
         9a:c8:2b:ef:1b:3e:00:63:04:8c:66:c9:0e:f5:8a:eb:ad:49:
         e5:5a:be:ab:1d:b4:55:ae:b0:41:dc:d0:ef:75:8b:36:36:2d:
         23:b4:af:91:14:4b:0c:41:15:ac:0c:21:a6:06:e9:f6:e2:50:
         28:6a:08:4d:a1:f7:76:78:8a:77:bd:86:3e:8d:b7:06:3c:91:
         f7:09:a3:93
-----BEGIN CERTIFICATE-----
MIIDPzCCAiegAwIBAgIBGTANBgkqhkiG9w0BAQsFADAZMRcwFQYDVQQDDA5lc3Qt
RVhURVJOQUxDQTAeFw0xNzA0MjAxMjI1NDZaFw0zNzA0MjAxMjI1NDZaMCUxIzAh
BgNVBAMMGlRSSUFEX0VTVF9ESUdJVEFMU0lHTkFUVVJFMIIBIjANBgkqhkiG9w0B
AQEFAAOCAQ8AMIIBCgKCAQEAsPveZl0NCvg4sImBDj2dypZGNdv+7R35bOB1Xp5o
Mk9ym7teJlh6N7uQHzbQrZ+KYqSaSy2XITLiaj89xtQwL58lbhzGI+igAYGPyS+M
dnNrTVX69lfkPq/FrYacWzkKi1AdrIYyZLNHV4dDX1tckFAP6cSISlCPVADfnGrX
ZdjUoyeRE+XDselNvfpggI8l9ZnwiLMQp5OResDG5hakou+wJuYnGCYgKsWHBy6Y
MobINC/hXLKm8a+P9sCAiHJAWuSn4uUFBcp+ceIop1PWBjrCLYgJnT6bdczumAsQ
Flz39A81a9WeyprBd6EE/toP7gZvwsMd1c+JAcjaw4aEeQIDAQABo4GFMIGCMAkG
A1UdEwQCMAAwCwYDVR0PBAQDAgeAMDsGA1UdEQQ0MDKCCWxvY2FsaG9zdIINaXA2
LWxvY2FsaG9zdIcEfwAAAYcQAAAAAAAAAAAAAAAAAAAAATArBgNVHR8EJDAiMCCg
HqAchhpodHRwOi8vZXhhbXBsZS5jb20vY3JsLnBlbTANBgkqhkiG9w0BAQsFAAOC
AQEAq1ta2o5pjd0DcJTk04a6lYO//yi2uL+51CSsYEqTQxRaFHkVj8hn5n+VwKVh
vEosdrZxw030VIEuiZOWM0EZSLcGC82AqJUTlR1oSM4r9MlVQ1ST80f1Mr1NjCiV
53D10vajb2NGNQ+TIYmWsHb5410e7hbvzjQLEE4wPfYgJ40xFqsieMH+5SNj+k3Y
nrzMFD9yIpOd7fc9b1NSSxirlyknsudcP68ro/1qdCjQENqMKwQPmsgr7xs+AGME
jGbJDvWK661J5Vq+qx20Va6wQdzQ73WLNjYtI7SvkRRLDEEVrAwhpgbp9uJQKGoI
TaH3dniKd72GPo23BjyR9wmjkw==
-----END CERTIFICATE-----
