Certificate:
    Data:
        Version: 3 (0x2)
        Serial Number: 863 (0x35f)
    Signature Algorithm: ecdsa-with-SHA1
        Issuer: CN=estExampleCA
        Validity
            Not Before: Sep 29 12:36:22 2014 GMT
            Not After : Dec 16 12:36:22 2022 GMT
        Subject: CN=hostname
        Subject Public Key Info:
            Public Key Algorithm: rsaEncryption
                Public-Key: (1024 bit)
                Modulus:
                    00:c2:4e:9f:27:15:91:6b:2b:e7:85:a8:50:d9:5b:
                    1a:a9:23:0a:84:1c:fd:e7:24:dc:29:18:f2:52:55:
                    43:25:e4:3e:ce:02:51:9c:93:19:67:89:c9:93:6d:
                    dc:5d:56:ad:cb:b0:7e:2c:7a:ad:98:17:7f:bb:19:
                    62:7d:2e:f0:0b:cf:c1:18:6f:6f:3a:fc:3d:3c:03:
                    9b:18:66:5f:dc:2a:fa:72:54:bf:5f:b0:75:dd:bf:
                    84:40:b1:3a:c5:65:2d:84:ee:48:76:1d:45:fa:1d:
                    e2:b2:25:5e:aa:06:8c:11:66:ef:40:f0:68:14:08:
                    a8:7e:62:4a:d2:e9:88:bd:3d
                Exponent: 65537 (0x10001)
        X509v3 extensions:
            X509v3 Basic Constraints: 
                CA:FALSE
            X509v3 Key Usage: 
                Digital Signature, Non Repudiation, Key Encipherment
    Signature Algorithm: ecdsa-with-SHA1
         30:45:02:21:00:a8:bd:82:16:2c:9c:bf:77:1a:4d:fc:0f:a5:
         a6:da:6e:e7:2f:45:fc:58:be:e3:0c:d2:a7:36:41:1f:45:c0:
         80:02:20:6f:82:eb:4b:05:63:c9:e3:c7:f8:42:c0:ff:f1:0f:
         5f:95:db:95:6e:71:fb:05:f0:52:e0:a6:82:53:45:f6:e3
-----BEGIN CERTIFICATE-----
MIIBeTCCASCgAwIBAgICA18wCQYHKoZIzj0EATAXMRUwEwYDVQQDEwxlc3RFeGFt
cGxlQ0EwHhcNMTQwOTI5MTIzNjIyWhcNMjIxMjE2MTIzNjIyWjATMREwDwYDVQQD
DAhob3N0bmFtZTCBnzANBgkqhkiG9w0BAQEFAAOBjQAwgYkCgYEAwk6fJxWRayvn
hahQ2VsaqSMKhBz95yTcKRjyUlVDJeQ+zgJRnJMZZ4nJk23cXVaty7B+LHqtmBd/
uxlifS7wC8/BGG9vOvw9PAObGGZf3Cr6clS/X7B13b+EQLE6xWUthO5Idh1F+h3i
siVeqgaMEWbvQPBoFAiofmJK0umIvT0CAwEAAaMaMBgwCQYDVR0TBAIwADALBgNV
HQ8EBAMCBeAwCQYHKoZIzj0EAQNIADBFAiEAqL2CFiycv3caTfwPpababucvRfxY
vuMM0qc2QR9FwIACIG+C60sFY8njx/hCwP/xD1+V25VucfsF8FLgpoJTRfbj
-----END CERTIFICATE-----
