Certificate:
    Data:
        Version: 3 (0x2)
        Serial Number: 716 (0x2cc)
    Signature Algorithm: ecdsa-with-SHA1
        Issuer: CN=estExampleCA
        Validity
            Not Before: Sep 27 14:56:29 2013 GMT
            Not After : Nov  5 14:56:29 2017 GMT
        Subject: CN=tester12
        Subject Public Key Info:
            Public Key Algorithm: rsaEncryption
                Public-Key: (1024 bit)
                Modulus:
                    00:c6:65:bf:f2:9f:fd:67:96:f9:f8:69:6b:83:c8:
                    c6:d9:a8:53:03:0e:b5:7c:79:f9:83:05:6f:60:d8:
                    0c:ec:33:b7:2a:95:48:d2:eb:d0:ba:cd:de:0c:71:
                    ec:c6:ef:ab:ea:4e:d0:4d:46:e1:d0:4d:9d:4c:31:
                    40:69:09:02:d1:66:0c:c2:be:6b:e5:ea:f5:15:38:
                    16:b2:34:20:8d:19:ee:61:b0:4c:d3:59:ec:c3:64:
                    fd:36:54:e3:49:2f:ee:8b:e3:06:42:ee:d7:af:5d:
                    31:6c:43:c6:b4:41:40:dc:e2:b3:ed:f6:95:f1:9c:
                    ec:72:d9:9c:07:af:32:cc:41
                Exponent: 65537 (0x10001)
        X509v3 extensions:
            X509v3 Basic Constraints: 
                CA:FALSE
            X509v3 Key Usage: 
                Digital Signature, Non Repudiation, Key Encipherment
            X509v3 Subject Alternative Name: 
                IP Address:192.168.50.65
    Signature Algorithm: ecdsa-with-SHA1
         30:46:02:21:00:ef:13:e8:c2:e0:30:5a:5f:93:41:7d:14:f1:
         d0:c1:a9:44:d3:11:72:52:c1:6c:b1:22:12:09:d8:96:0b:fa:
         1f:02:21:00:d3:74:15:65:fc:dc:d9:0f:e8:1c:4d:1d:b3:2e:
         37:78:47:d0:69:95:9b:bc:a2:b5:c7:4f:32:0d:50:84:45:34
-----BEGIN CERTIFICATE-----
MIIBizCCATGgAwIBAgICAswwCQYHKoZIzj0EATAXMRUwEwYDVQQDEwxlc3RFeGFt
cGxlQ0EwHhcNMTMwOTI3MTQ1NjI5WhcNMTcxMTA1MTQ1NjI5WjATMREwDwYDVQQD
DAh0ZXN0ZXIxMjCBnzANBgkqhkiG9w0BAQEFAAOBjQAwgYkCgYEAxmW/8p/9Z5b5
+Glrg8jG2ahTAw61fHn5gwVvYNgM7DO3KpVI0uvQus3eDHHsxu+r6k7QTUbh0E2d
TDFAaQkC0WYMwr5r5er1FTgWsjQgjRnuYbBM01nsw2T9NlTjSS/ui+MGQu7Xr10x
bEPGtEFA3OKz7faV8ZzsctmcB68yzEECAwEAAaMrMCkwCQYDVR0TBAIwADALBgNV
HQ8EBAMCBeAwDwYDVR0RBAgwBocEwKgyQTAJBgcqhkjOPQQBA0kAMEYCIQDvE+jC
4DBaX5NBfRTx0MGpRNMRclLBbLEiEgnYlgv6HwIhANN0FWX83NkP6BxNHbMuN3hH
0GmVm7yitcdPMg1QhEU0
-----END CERTIFICATE-----
