Certificate:
    Data:
        Version: 3 (0x2)
        Serial Number: 715 (0x2cb)
    Signature Algorithm: ecdsa-with-SHA1
        Issuer: CN=estExampleCA
        Validity
            Not Before: Sep 27 14:35:46 2013 GMT
            Not After : Nov  5 14:35:46 2017 GMT
        Subject: CN=tester11
        Subject Public Key Info:
            Public Key Algorithm: rsaEncryption
                Public-Key: (1024 bit)
                Modulus:
                    00:bd:98:4d:6e:91:3f:05:65:cf:ee:aa:24:16:b3:
                    44:ba:d8:89:b1:c9:bd:10:0a:70:92:99:de:ea:63:
                    04:ec:d5:e3:d5:3d:41:20:f7:ab:00:cc:21:a3:b9:
                    bf:88:83:3d:14:f4:a9:84:95:23:6c:98:d5:d3:90:
                    1f:cb:c0:6c:90:71:57:fd:39:e6:e4:99:29:83:d6:
                    28:58:d3:ca:3f:70:06:a4:f0:25:82:b1:73:4e:03:
                    a6:d9:51:cd:6b:70:c6:a9:4c:75:36:4e:eb:37:46:
                    7c:1c:2e:cf:9b:be:e5:a2:0e:1b:21:74:e8:72:a2:
                    ad:ed:b1:3c:a0:4a:d4:c3:17
                Exponent: 65537 (0x10001)
        X509v3 extensions:
            X509v3 Basic Constraints: 
                CA:FALSE
            X509v3 Key Usage: 
                Digital Signature, Non Repudiation, Key Encipherment
            X509v3 Subject Alternative Name: 
                DNS:roundhouse.cisco.com
    Signature Algorithm: ecdsa-with-SHA1
         30:44:02:20:28:51:20:46:6e:43:bc:37:f4:83:17:30:bd:04:
         e1:6f:3c:e8:91:63:6e:d9:d2:24:79:c5:2d:3c:0c:c0:92:ed:
         02:20:5e:e3:2c:6c:16:66:d1:dd:1d:f5:14:a1:bb:e7:54:55:
         fa:e9:fd:76:a5:6a:f0:56:2d:13:27:c0:c6:4e:3b:0f
-----BEGIN CERTIFICATE-----
MIIBmTCCAUGgAwIBAgICAsswCQYHKoZIzj0EATAXMRUwEwYDVQQDEwxlc3RFeGFt
cGxlQ0EwHhcNMTMwOTI3MTQzNTQ2WhcNMTcxMTA1MTQzNTQ2WjATMREwDwYDVQQD
DAh0ZXN0ZXIxMTCBnzANBgkqhkiG9w0BAQEFAAOBjQAwgYkCgYEAvZhNbpE/BWXP
7qokFrNEutiJscm9EApwkpne6mME7NXj1T1BIPerAMwho7m/iIM9FPSphJUjbJjV
05Afy8BskHFX/Tnm5Jkpg9YoWNPKP3AGpPAlgrFzTgOm2VHNa3DGqUx1Nk7rN0Z8
HC7Pm77log4bIXTocqKt7bE8oErUwxcCAwEAAaM7MDkwCQYDVR0TBAIwADALBgNV
HQ8EBAMCBeAwHwYDVR0RBBgwFoIUcm91bmRob3VzZS5jaXNjby5jb20wCQYHKoZI
zj0EAQNHADBEAiAoUSBGbkO8N/SDFzC9BOFvPOiRY27Z0iR5xS08DMCS7QIgXuMs
bBZm0d0d9RShu+dUVfrp/XalavBWLRMnwMZOOw8=
-----END CERTIFICATE-----
