Certificate:
    Data:
        Version: 3 (0x2)
        Serial Number: 719 (0x2cf)
    Signature Algorithm: ecdsa-with-SHA1
        Issuer: CN=estExampleCA
        Validity
            Not Before: Sep 27 15:10:16 2013 GMT
            Not After : Nov  5 15:10:16 2017 GMT
        Subject: CN=tester14
        Subject Public Key Info:
            Public Key Algorithm: rsaEncryption
                Public-Key: (1024 bit)
                Modulus:
                    00:ae:3a:26:93:ee:cb:de:f6:5b:b5:fb:a3:2e:b6:
                    2b:cc:eb:49:1a:76:38:60:30:eb:7f:9a:99:f5:d2:
                    7f:fd:c8:da:bd:f3:38:4b:7d:27:fb:15:81:23:59:
                    22:92:1f:ad:77:f7:5f:50:e7:69:e2:64:2a:68:33:
                    63:62:02:10:fa:2c:e1:06:ae:cc:04:79:e5:8c:1f:
                    ea:9a:26:9e:03:b0:4f:b4:f8:1c:2b:21:6b:b0:6d:
                    68:24:ae:0c:2e:a7:36:7b:27:d4:f1:13:ef:75:5e:
                    e2:11:49:fc:d4:f8:4d:2d:63:3e:c8:08:44:a3:c8:
                    79:42:4e:85:a5:5e:ab:91:53
                Exponent: 65537 (0x10001)
        X509v3 extensions:
            X509v3 Basic Constraints: 
                CA:FALSE
            X509v3 Key Usage: 
                Digital Signature, Non Repudiation, Key Encipherment
            X509v3 Subject Alternative Name: 
                DNS:*.cisco.com
    Signature Algorithm: ecdsa-with-SHA1
         30:44:02:20:47:98:0f:e8:c3:0f:b1:8e:80:bc:ec:66:30:da:
         68:0d:2e:c3:de:aa:20:66:e8:8a:dd:d0:12:97:dd:67:af:0d:
         02:20:6f:8a:1a:37:f4:19:ce:5d:8c:5e:af:b2:e7:7d:72:5b:
         7e:dc:a9:7e:49:ec:bf:c4:d5:5b:38:5b:9e:b2:1e:27
-----BEGIN CERTIFICATE-----
MIIBkDCCATigAwIBAgICAs8wCQYHKoZIzj0EATAXMRUwEwYDVQQDEwxlc3RFeGFt
cGxlQ0EwHhcNMTMwOTI3MTUxMDE2WhcNMTcxMTA1MTUxMDE2WjATMREwDwYDVQQD
DAh0ZXN0ZXIxNDCBnzANBgkqhkiG9w0BAQEFAAOBjQAwgYkCgYEArjomk+7L3vZb
tfujLrYrzOtJGnY4YDDrf5qZ9dJ//cjavfM4S30n+xWBI1kikh+td/dfUOdp4mQq
aDNjYgIQ+izhBq7MBHnljB/qmiaeA7BPtPgcKyFrsG1oJK4MLqc2eyfU8RPvdV7i
EUn81PhNLWM+yAhEo8h5Qk6FpV6rkVMCAwEAAaMyMDAwCQYDVR0TBAIwADALBgNV
HQ8EBAMCBeAwFgYDVR0RBA8wDYILKi5jaXNjby5jb20wCQYHKoZIzj0EAQNHADBE
AiBHmA/oww+xjoC87GYw2mgNLsPeqiBm6Ird0BKX3WevDQIgb4oaN/QZzl2MXq+y
531yW37cqX5J7L/E1Vs4W56yHic=
-----END CERTIFICATE-----
