Certificate:
    Data:
        Version: 3 (0x2)
        Serial Number: 721 (0x2d1)
    Signature Algorithm: ecdsa-with-SHA1
        Issuer: CN=estExampleCA
        Validity
            Not Before: Sep 27 15:15:18 2013 GMT
            Not After : Nov  5 15:15:18 2017 GMT
        Subject: CN=tester15
        Subject Public Key Info:
            Public Key Algorithm: rsaEncryption
                Public-Key: (1024 bit)
                Modulus:
                    00:a0:42:6b:73:58:0c:f2:85:6e:af:50:b3:19:44:
                    a1:44:03:15:2b:e2:f5:0b:34:20:a3:c8:f2:d5:03:
                    9c:5f:80:f7:ed:29:f5:9e:d4:0e:5f:64:99:a2:f1:
                    dd:8e:d1:5b:99:85:48:1a:6f:7d:1d:50:d3:13:7b:
                    48:df:2c:60:62:4b:5a:8b:19:2f:00:c3:b3:09:1c:
                    09:51:27:eb:ab:ed:fb:06:62:31:69:fb:1e:f9:11:
                    12:75:dd:a4:f9:8a:99:e9:f4:48:96:db:89:b8:64:
                    fc:55:7f:5f:4f:1b:89:07:0c:05:b8:aa:4d:c6:e6:
                    41:ee:7a:c3:f4:25:93:65:53
                Exponent: 65537 (0x10001)
        X509v3 extensions:
            X509v3 Basic Constraints: 
                CA:FALSE
            X509v3 Key Usage: 
                Digital Signature, Non Repudiation, Key Encipherment
            X509v3 Subject Alternative Name: 
                DNS:*.yahoo.com
    Signature Algorithm: ecdsa-with-SHA1
         30:44:02:20:20:9c:0e:e3:29:89:f4:2d:07:c5:66:52:9a:9a:
         56:10:30:03:b1:9c:a3:aa:fd:2a:d2:d9:c7:67:1e:4b:f8:6a:
         02:20:12:01:05:2b:73:8d:2b:aa:d3:5d:9e:f5:e5:4e:c8:a8:
         eb:86:6e:02:95:f4:7d:57:d7:69:39:d8:67:7b:8b:1f
-----BEGIN CERTIFICATE-----
MIIBkDCCATigAwIBAgICAtEwCQYHKoZIzj0EATAXMRUwEwYDVQQDEwxlc3RFeGFt
cGxlQ0EwHhcNMTMwOTI3MTUxNTE4WhcNMTcxMTA1MTUxNTE4WjATMREwDwYDVQQD
DAh0ZXN0ZXIxNTCBnzANBgkqhkiG9w0BAQEFAAOBjQAwgYkCgYEAoEJrc1gM8oVu
r1CzGUShRAMVK+L1CzQgo8jy1QOcX4D37Sn1ntQOX2SZovHdjtFbmYVIGm99HVDT
E3tI3yxgYktaixkvAMOzCRwJUSfrq+37BmIxafse+RESdd2k+YqZ6fRIltuJuGT8
VX9fTxuJBwwFuKpNxuZB7nrD9CWTZVMCAwEAAaMyMDAwCQYDVR0TBAIwADALBgNV
HQ8EBAMCBeAwFgYDVR0RBA8wDYILKi55YWhvby5jb20wCQYHKoZIzj0EAQNHADBE
AiAgnA7jKYn0LQfFZlKamlYQMAOxnKOq/SrS2cdnHkv4agIgEgEFK3ONK6rTXZ71
5U7IqOuGbgKV9H1X12k52Gd7ix8=
-----END CERTIFICATE-----
