Certificate:
    Data:
        Version: 3 (0x2)
        Serial Number: 1 (0x1)
    Signature Algorithm: ecdsa-with-SHA256
        Issuer: CN=estExampleCA
        Validity
            Not Before: Jan 28 08:02:32 2017 GMT
            Not After : Jan 28 08:02:32 2018 GMT
        Subject: CN=127.0.0.1
        Subject Public Key Info:
            Public Key Algorithm: id-ecPublicKey
                Public-Key: (256 bit)
                pub: 
                    04:92:12:f2:41:83:10:69:d1:83:a5:da:4c:a4:9b:
                    83:0a:4c:77:ad:c2:0f:38:e8:88:15:6d:30:38:09:
                    1c:1b:ce:5e:0b:3f:f4:fc:15:0e:24:da:8b:4f:ec:
                    fa:9f:cc:57:ce:75:2b:97:94:5b:01:b3:d1:a9:8e:
                    f9:8d:5d:cf:80
                ASN1 OID: prime256v1
                NIST CURVE: P-256
        X509v3 extensions:
            X509v3 Basic Constraints: 
                CA:FALSE
            X509v3 Key Usage: 
                Digital Signature, Non Repudiation, Key Encipherment
            X509v3 Subject Alternative Name: 
                DNS:localhost, DNS:ip6-localhost, IP Address:127.0.0.1, IP Address:0:0:0:0:0:0:0:1
            X509v3 CRL Distribution Points: 

                Full Name:
                  URI:http://example.com/crl.pem

    Signature Algorithm: ecdsa-with-SHA256
         30:44:02:20:3a:26:f4:af:7d:ea:c8:d8:eb:78:20:ef:4e:c8:
         4c:a7:ab:df:ab:29:dc:12:6c:01:a4:0e:04:1a:9b:28:02:c7:
         02:20:3f:1b:66:56:2e:34:7f:51:52:86:e1:9a:4d:39:8f:4f:
         b9:60:6f:cf:3d:e4:e9:06:7b:4b:5b:f9:28:27:4c:9c
-----BEGIN CERTIFICATE-----
MIIBnzCCAUagAwIBAgIBATAKBggqhkjOPQQDAjAXMRUwEwYDVQQDDAxlc3RFeGFt
cGxlQ0EwHhcNMTcwMTI4MDgwMjMyWhcNMTgwMTI4MDgwMjMyWjAUMRIwEAYDVQQD
DAkxMjcuMC4wLjEwWTATBgcqhkjOPQIBBggqhkjOPQMBBwNCAASSEvJBgxBp0YOl
2kykm4MKTHetwg846IgVbTA4CRwbzl4LP/T8FQ4k2otP7PqfzFfOdSuXlFsBs9Gp
jvmNXc+Ao4GFMIGCMAkGA1UdEwQCMAAwCwYDVR0PBAQDAgXgMDsGA1UdEQQ0MDKC
CWxvY2FsaG9zdIINaXA2LWxvY2FsaG9zdIcEfwAAAYcQAAAAAAAAAAAAAAAAAAAA
ATArBgNVHR8EJDAiMCCgHqAchhpodHRwOi8vZXhhbXBsZS5jb20vY3JsLnBlbTAK
BggqhkjOPQQDAgNHADBEAiA6JvSvferI2Ot4IO9OyEynq9+rKdwSbAGkDgQamygC
xwIgPxtmVi40f1FShuGaTTmPT7lgb8895OkGe0tb+SgnTJw=
-----END CERTIFICATE-----
-----BEGIN PRIVATE KEY-----
MIGHAgEAMBMGByqGSM49AgEGCCqGSM49AwEHBG0wawIBAQQguLyr0W+uq2SdfJbg
ghnPASoex2aoigjEsFoJ77EkxCqhRANCAASSEvJBgxBp0YOl2kykm4MKTHetwg84
6IgVbTA4CRwbzl4LP/T8FQ4k2otP7PqfzFfOdSuXlFsBs9GpjvmNXc+A
-----END PRIVATE KEY-----
